; Function Attrs: mustprogress nofree norecurse nosync nounwind willreturn memory(read, argmem: readwrite, inaccessiblemem: none) uwtable
define internal i64 @ExecJustInnerVarVirt(ptr noundef readonly captures(none) %0, ptr noundef readonly captures(none) %1, ptr noundef writeonly captures(none) initializes((0, 1)) %2) #2 {
  %4 = getelementptr inbounds nuw i8, ptr %1, i64 16
  %5 = load ptr, ptr %4, align 8
  %6 = getelementptr inbounds nuw i8, ptr %0, i64 24
  %7 = load ptr, ptr %6, align 8
  %8 = getelementptr inbounds nuw i8, ptr %7, i64 24
  %9 = load i32, ptr %8, align 8
  %10 = getelementptr inbounds nuw i8, ptr %5, i64 32
  %11 = load ptr, ptr %10, align 8
  %12 = sext i32 %9 to i64
  %13 = getelementptr inbounds i8, ptr %11, i64 %12
  %14 = load i8, ptr %13, align 1, !range !8, !noundef !9
  store i8 %14, ptr %2, align 1
  %15 = getelementptr inbounds nuw i8, ptr %5, i64 24
  %16 = load ptr, ptr %15, align 8
  %17 = getelementptr inbounds i64, ptr %16, i64 %12
  %18 = load i64, ptr %17, align 8
  ret i64 %18
}